target datalayout = "e-m:e-p270:32:32-p271:32:32-p272:64:64-i64:64-i128:128-f80:128-n8:16:32:64-S128"
target triple = "x86_64-pc-linux-gnu"

%struct.Vec_Int_t_ = type { i32, i32, ptr }
%struct.Abc_Ntk_t_ = type { i32, i32, ptr, ptr, ptr, ptr, ptr, ptr, ptr, ptr, ptr, ptr, ptr, [11 x i32], i32, i32, i32, i32, ptr, i32, ptr, ptr, i32, i32, i32, double, i32, %struct.Vec_Int_t_, ptr, ptr, ptr, ptr, ptr, float, i32, ptr, ptr, ptr, ptr, ptr, ptr, ptr, ptr, ptr, ptr, ptr, ptr, ptr, ptr, ptr, ptr, ptr, ptr, ptr, ptr, ptr, ptr }
%struct.Sfm_Par_t_ = type { i32, i32, i32, i32, i32, i32, i32, i32, i32, i32, i32, i32, i32, i32, i32, i32, i32, i32, i32, i32, i32, i32, i32, i32, i32, i32, i32, i32, i32, i32, i32 }

@.str = private unnamed_addr constant [87 x i8] c"Currently \22mfs\22 cannot process the network containing nodes with more than 15 fanins.\0A\00", align 1
@.str.2 = private unnamed_addr constant [44 x i8] c"The network has %d nodes changed by \22mfs\22.\0A\00", align 1
@.str.5 = private unnamed_addr constant [17 x i8] c"unroll_dump.blif\00", align 1

; Function Attrs: inlinehint nounwind uwtable
define internal i32 @Abc_NtkHasSop(ptr noundef %0) #3 {
  %2 = alloca ptr, align 8
  store ptr %0, ptr %2, align 8, !tbaa !3
  %3 = load ptr, ptr %2, align 8, !tbaa !3
  %4 = getelementptr inbounds nuw %struct.Abc_Ntk_t_, ptr %3, i32 0, i32 1
  %5 = load i32, ptr %4, align 4, !tbaa !113
  %6 = icmp eq i32 %5, 1
  %7 = zext i1 %6 to i32
  ret i32 %7
}

; Function Attrs: nounwind uwtable
define i32 @Abc_NtkMfsAfterICheck(ptr noundef %0, i32 noundef %1, i32 noundef %2, ptr noundef %3, ptr noundef %4) #0 {
  %6 = alloca i32, align 4
  %7 = alloca ptr, align 8
  %8 = alloca i32, align 4
  %9 = alloca i32, align 4
  %10 = alloca ptr, align 8
  %11 = alloca ptr, align 8
  %12 = alloca ptr, align 8
  %13 = alloca i32, align 4
  %14 = alloca i32, align 4
  %15 = alloca ptr, align 8
  %16 = alloca i32, align 4
  %17 = alloca i32, align 4
  store ptr %0, ptr %7, align 8, !tbaa !3
  store i32 %1, ptr %8, align 4, !tbaa !10
  store i32 %2, ptr %9, align 4, !tbaa !10
  store ptr %3, ptr %10, align 8, !tbaa !45
  store ptr %4, ptr %11, align 8, !tbaa !105
  call void @llvm.lifetime.start.p0(i64 8, ptr %12) #11
  call void @llvm.lifetime.start.p0(i64 4, ptr %13) #11
  call void @llvm.lifetime.start.p0(i64 4, ptr %14) #11
  call void @llvm.lifetime.start.p0(i64 8, ptr %15) #11
  call void @llvm.lifetime.start.p0(i64 4, ptr %16) #11
  %18 = load ptr, ptr %7, align 8, !tbaa !3
  %19 = call i32 @Abc_NtkGetFaninMax(ptr noundef %18)
  store i32 %19, ptr %13, align 4, !tbaa !10
  %20 = load i32, ptr %13, align 4, !tbaa !10
  %21 = icmp sgt i32 %20, 15
  br i1 %21, label %22, label %23

22:                                               ; preds = %5
  call void (i32, ptr, ...) @Abc_Print(i32 noundef 1, ptr noundef @.str)
  store i32 0, ptr %6, align 4
  store i32 1, ptr %17, align 4
  br label %71

23:                                               ; preds = %5
  %24 = load ptr, ptr %7, align 8, !tbaa !3
  %25 = call i32 @Abc_NtkHasSop(ptr noundef %24)
  %26 = icmp ne i32 %25, 0
  br i1 %26, label %30, label %27

27:                                               ; preds = %23
  %28 = load ptr, ptr %7, align 8, !tbaa !3
  %29 = call i32 @Abc_NtkToSop(ptr noundef %28, i32 noundef -1, i32 noundef 1000000000)
  br label %30

30:                                               ; preds = %27, %23
  %31 = load ptr, ptr %7, align 8, !tbaa !3
  %32 = load i32, ptr %8, align 4, !tbaa !10
  %33 = load i32, ptr %9, align 4, !tbaa !10
  %34 = load ptr, ptr %10, align 8, !tbaa !45
  %35 = call ptr @Abc_NtkUnrollAndDrop(ptr noundef %31, i32 noundef %32, i32 noundef %33, ptr noundef %34, ptr noundef %16)
  store ptr %35, ptr %15, align 8, !tbaa !3
  %36 = load ptr, ptr %15, align 8, !tbaa !3
  call void @Io_WriteBlifLogic(ptr noundef %36, ptr noundef @.str.5, i32 noundef 0)
  %37 = load ptr, ptr %15, align 8, !tbaa !3
  %38 = load i32, ptr %16, align 4, !tbaa !10
  %39 = call ptr @Abc_NtkExtractMfs2(ptr noundef %37, i32 noundef %38)
  store ptr %39, ptr %12, align 8, !tbaa !96
  %40 = load ptr, ptr %12, align 8, !tbaa !96
  %41 = load ptr, ptr %11, align 8, !tbaa !105
  %42 = call i32 @Sfm_NtkPerform(ptr noundef %40, ptr noundef %41)
  store i32 %42, ptr %14, align 4, !tbaa !10
  %43 = load i32, ptr %14, align 4, !tbaa !10
  %44 = icmp eq i32 %43, 0
  br i1 %44, label %45, label %46

45:                                               ; preds = %30
  br label %59

46:                                               ; preds = %30
  %47 = load ptr, ptr %15, align 8, !tbaa !3
  %48 = load ptr, ptr %12, align 8, !tbaa !96
  call void @Abc_NtkInsertMfs(ptr noundef %47, ptr noundef %48)
  %49 = load ptr, ptr %11, align 8, !tbaa !105
  %50 = getelementptr inbounds nuw %struct.Sfm_Par_t_, ptr %49, i32 0, i32 29
  %51 = load i32, ptr %50, align 4, !tbaa !109
  %52 = icmp ne i32 %51, 0
  br i1 %52, label %53, label %55

53:                                               ; preds = %46
  %54 = load i32, ptr %14, align 4, !tbaa !10
  call void (i32, ptr, ...) @Abc_Print(i32 noundef 1, ptr noundef @.str.2, i32 noundef %54)
  br label %55

55:                                               ; preds = %53, %46
  %56 = load ptr, ptr %7, align 8, !tbaa !3
  %57 = load ptr, ptr %15, align 8, !tbaa !3
  %58 = load i32, ptr %16, align 4, !tbaa !10
  call void @Abc_NtkReinsertNodes(ptr noundef %56, ptr noundef %57, i32 noundef %58)
  br label %59

59:                                               ; preds = %55, %45
  %60 = load ptr, ptr %15, align 8, !tbaa !3
  call void @Abc_NtkDelete(ptr noundef %60)
  %61 = load ptr, ptr %12, align 8, !tbaa !96
  call void @Sfm_NtkFree(ptr noundef %61)
  %62 = load ptr, ptr %7, align 8, !tbaa !3
  %63 = call i32 @Abc_NtkSweep(ptr noundef %62, i32 noundef 0)
  %64 = load ptr, ptr %7, align 8, !tbaa !3
  %65 = call i32 @Abc_NtkHasSop(ptr noundef %64)
  %66 = icmp ne i32 %65, 0
  br i1 %66, label %70, label %67

67:                                               ; preds = %59
  %68 = load ptr, ptr %7, align 8, !tbaa !3
  %69 = call i32 @Abc_NtkToSop(ptr noundef %68, i32 noundef -1, i32 noundef 1000000000)
  br label %70

70:                                               ; preds = %67, %59
  store i32 1, ptr %6, align 4
  store i32 1, ptr %17, align 4
  br label %71

71:                                               ; preds = %70, %22
  call void @llvm.lifetime.end.p0(i64 4, ptr %16) #11
  call void @llvm.lifetime.end.p0(i64 8, ptr %15) #11
  call void @llvm.lifetime.end.p0(i64 4, ptr %14) #11
  call void @llvm.lifetime.end.p0(i64 4, ptr %13) #11
  call void @llvm.lifetime.end.p0(i64 8, ptr %12) #11
  %72 = load i32, ptr %6, align 4
  ret i32 %72
}