; Function Attrs: nounwind uwtable
define range(i32 0, 2) i32 @Abc_NtkMfsAfterICheck(ptr noundef %0, i32 noundef %1, i32 noundef %2, ptr noundef readonly captures(none) %3, ptr noundef %4) local_unnamed_addr #0 {
  %6 = alloca i32, align 4
  call void @llvm.lifetime.start.p0(i64 4, ptr nonnull %6) #16
  %7 = tail call i32 @Abc_NtkGetFaninMax(ptr noundef %0) #16
  %8 = icmp sgt i32 %7, 15
  br i1 %8, label %9, label %10

9:                                                ; preds = %5
  tail call void (i32, ptr, ...) @Abc_Print(i32 poison, ptr noundef nonnull @.str)
  br label %29

10:                                               ; preds = %5
  %11 = getelementptr i8, ptr %0, i64 4
  %.val27 = load i32, ptr %11, align 4, !tbaa !94
  %.not = icmp eq i32 %.val27, 1
  br i1 %.not, label %14, label %12

12:                                               ; preds = %10
  %13 = tail call i32 @Abc_NtkToSop(ptr noundef nonnull %0, i32 noundef -1, i32 noundef 1000000000) #16
  br label %14

14:                                               ; preds = %12, %10
  %15 = call ptr @Abc_NtkUnrollAndDrop(ptr noundef nonnull %0, i32 noundef %1, i32 noundef %2, ptr noundef %3, ptr noundef nonnull %6)
  tail call void @Io_WriteBlifLogic(ptr noundef %15, ptr noundef nonnull @.str.5, i32 noundef 0) #16
  %16 = load i32, ptr %6, align 4, !tbaa !35
  %17 = tail call ptr @Abc_NtkExtractMfs2(ptr noundef %15, i32 noundef %16)
  %18 = tail call i32 @Sfm_NtkPerform(ptr noundef %17, ptr noundef %4) #16
  %19 = icmp eq i32 %18, 0
  br i1 %19, label %25, label %20

20:                                               ; preds = %14
  tail call void @Abc_NtkInsertMfs(ptr noundef %15, ptr noundef %17)
  %21 = getelementptr inbounds nuw i8, ptr %4, i64 116
  %22 = load i32, ptr %21, align 4, !tbaa !97
  %.not25 = icmp eq i32 %22, 0
  br i1 %.not25, label %24, label %23

23:                                               ; preds = %20
  tail call void (i32, ptr, ...) @Abc_Print(i32 poison, ptr noundef nonnull @.str.2, i32 noundef %18)
  br label %24

24:                                               ; preds = %23, %20
  tail call void @Abc_NtkReinsertNodes(ptr noundef nonnull %0, ptr noundef %15, i32 poison)
  br label %25

25:                                               ; preds = %14, %24
  tail call void @Abc_NtkDelete(ptr noundef %15) #16
  tail call void @Sfm_NtkFree(ptr noundef %17) #16
  %26 = tail call i32 @Abc_NtkSweep(ptr noundef nonnull %0, i32 noundef 0) #16
  %.val = load i32, ptr %11, align 4, !tbaa !94
  %.not28 = icmp eq i32 %.val, 1
  br i1 %.not28, label %29, label %27

27:                                               ; preds = %25
  %28 = tail call i32 @Abc_NtkToSop(ptr noundef nonnull %0, i32 noundef -1, i32 noundef 1000000000) #16
  br label %29

29:                                               ; preds = %25, %27, %9
  %.0 = phi i32 [ 0, %9 ], [ 1, %27 ], [ 1, %25 ]
  call void @llvm.lifetime.end.p0(i64 4, ptr nonnull %6) #16
  ret i32 %.0
}